target datalayout = "e-m:e-p270:32:32-p271:32:32-p272:64:64-i64:64-i128:128-f80:128-n8:16:32:64-S128"
target triple = "x86_64-pc-linux-gnu"

%struct.object_id = type { [32 x i8], i32 }
%struct.hashmap_entry = type { ptr, i32 }
%struct.ref_to_worktree_entry = type { %struct.hashmap_entry, ptr }
%struct.worktree = type { ptr, ptr, ptr, ptr, ptr, ptr, %struct.object_id, i32, i32, i32, i32, i32 }

; Function Attrs: nounwind uwtable
define internal i32 @ref_to_worktree_map_cmpfnc(ptr noundef %0, ptr noundef %1, ptr noundef %2, ptr noundef %3) #0 {
  %5 = alloca ptr, align 8
  %6 = alloca ptr, align 8
  %7 = alloca ptr, align 8
  %8 = alloca ptr, align 8
  %9 = alloca ptr, align 8
  %10 = alloca ptr, align 8
  store ptr %0, ptr %5, align 8, !tbaa !118
  store ptr %1, ptr %6, align 8, !tbaa !258
  store ptr %2, ptr %7, align 8, !tbaa !258
  store ptr %3, ptr %8, align 8, !tbaa !118
  call void @llvm.lifetime.start.p0(i64 8, ptr %9) #11
  call void @llvm.lifetime.start.p0(i64 8, ptr %10) #11
  %11 = load ptr, ptr %6, align 8, !tbaa !258
  %12 = getelementptr inbounds i8, ptr %11, i64 0
  store ptr %12, ptr %9, align 8, !tbaa !260
  %13 = load ptr, ptr %7, align 8, !tbaa !258
  %14 = getelementptr inbounds i8, ptr %13, i64 0
  store ptr %14, ptr %10, align 8, !tbaa !260
  %15 = load ptr, ptr %9, align 8, !tbaa !260
  %16 = getelementptr inbounds nuw %struct.ref_to_worktree_entry, ptr %15, i32 0, i32 1
  %17 = load ptr, ptr %16, align 8, !tbaa !262
  %18 = getelementptr inbounds nuw %struct.worktree, ptr %17, i32 0, i32 3
  %19 = load ptr, ptr %18, align 8, !tbaa !293
  %20 = load ptr, ptr %8, align 8, !tbaa !118
  %21 = icmp ne ptr %20, null
  br i1 %21, label %22, label %24

22:                                               ; preds = %4
  %23 = load ptr, ptr %8, align 8, !tbaa !118
  br label %30

24:                                               ; preds = %4
  %25 = load ptr, ptr %10, align 8, !tbaa !260
  %26 = getelementptr inbounds nuw %struct.ref_to_worktree_entry, ptr %25, i32 0, i32 1
  %27 = load ptr, ptr %26, align 8, !tbaa !262
  %28 = getelementptr inbounds nuw %struct.worktree, ptr %27, i32 0, i32 3
  %29 = load ptr, ptr %28, align 8, !tbaa !293
  br label %30

30:                                               ; preds = %24, %22
  %31 = phi ptr [ %23, %22 ], [ %29, %24 ]
  %32 = call i32 @strcmp(ptr noundef %19, ptr noundef %31) #12
  call void @llvm.lifetime.end.p0(i64 8, ptr %10) #11
  call void @llvm.lifetime.end.p0(i64 8, ptr %9) #11
  ret i32 %32
}